; Function Attrs: mustprogress nounwind uwtable
define void @_ZN25MulticastStatisticsDialogD2Ev(ptr noundef nonnull align 8 dereferenceable(296) %0) unnamed_addr #2 align 2 personality ptr @__gxx_personality_v0 {
  store ptr getelementptr inbounds ({ [68 x ptr], [10 x ptr] }, ptr @_ZTV25MulticastStatisticsDialog, i64 0, i32 0, i64 2), ptr %0, align 8
  %2 = getelementptr inbounds i8, ptr %0, i64 16
  store ptr getelementptr inbounds ({ [68 x ptr], [10 x ptr] }, ptr @_ZTV25MulticastStatisticsDialog, i64 0, i32 1, i64 2), ptr %2, align 8
  %3 = getelementptr inbounds i8, ptr %0, i64 224
  %4 = load ptr, ptr %3, align 8
  invoke void @remove_tap_listener_mcast_stream(ptr noundef %4)
          to label %5 unwind label %17

5:                                                ; preds = %1
  %6 = load ptr, ptr %3, align 8
  invoke void @mcaststream_reset(ptr noundef %6)
          to label %7 unwind label %17

7:                                                ; preds = %5
  %8 = load ptr, ptr %3, align 8
  %9 = icmp eq ptr %8, null
  br i1 %9, label %11, label %10

10:                                               ; preds = %7
  tail call void @_ZdlPv(ptr noundef nonnull %8) #19
  br label %11

11:                                               ; preds = %10, %7
  %12 = getelementptr inbounds i8, ptr %0, i64 272
  %13 = load ptr, ptr %12, align 8
  %.not.i.i.i = icmp eq ptr %13, null
  br i1 %.not.i.i.i, label %_ZN5QListIP7QWidgetED2Ev.exit, label %_ZN17QArrayDataPointerIP7QWidgetE5derefEv.exit.i.i

_ZN17QArrayDataPointerIP7QWidgetE5derefEv.exit.i.i: ; preds = %11
  %14 = atomicrmw sub ptr %13, i32 1 seq_cst, align 4
  %.not.i.i = icmp eq i32 %14, 1
  br i1 %.not.i.i, label %15, label %_ZN5QListIP7QWidgetED2Ev.exit

15:                                               ; preds = %_ZN17QArrayDataPointerIP7QWidgetE5derefEv.exit.i.i
  %16 = load ptr, ptr %12, align 8
  tail call void @_ZN10QArrayData10deallocateEPS_xx(ptr noundef %16, i64 noundef 8, i64 noundef 8) #17
  br label %_ZN5QListIP7QWidgetED2Ev.exit

_ZN5QListIP7QWidgetED2Ev.exit:                    ; preds = %11, %_ZN17QArrayDataPointerIP7QWidgetE5derefEv.exit.i.i, %15
  tail call void @_ZN18TapParameterDialogD2Ev(ptr noundef nonnull align 8 dereferenceable(224) %0) #17
  ret void

17:                                               ; preds = %5, %1
  %18 = landingpad { ptr, i32 }
          catch ptr null
  %19 = extractvalue { ptr, i32 } %18, 0
  tail call void @__clang_call_terminate(ptr %19) #20
  unreachable
}